target datalayout = "e-m:e-p270:32:32-p271:32:32-p272:64:64-i64:64-i128:128-f80:128-n8:16:32:64-S128"
target triple = "x86_64-pc-linux-gnu"

%struct.H5MF_free_section_t = type { %struct.H5FS_section_info_t }
%struct.H5FS_section_info_t = type { i64, i64, i32, i32 }
%struct.H5MF_sect_ud_t = type { ptr, i32, i8, i8, i32, ptr }
%struct.H5F_t = type { ptr, ptr, ptr, ptr, i32, ptr, i8, i8, ptr, i32 }
%struct.H5F_shared_t = type { ptr, ptr, ptr, i8, i32, i32, %struct.H5F_mtab_t, ptr, i8, i8, i64, i32, i32, i64, i64, ptr, ptr, %struct.H5AC_cache_config_t, %struct.H5AC_cache_image_config_t, i8, i8, ptr, i64, i32, i8, i64, i64, double, i64, i64, i64, i32, i32, i32, i8, i32, ptr, ptr, ptr, ptr, i8, i8, i8, i64, i64, ptr, ptr, i32, i64, i8, i32, i8, i64, i8, [13 x i32], [13 x i64], [13 x ptr], i8, i64, i64, [7 x i32], [7 x i32], %struct.H5F_blk_aggr_t, %struct.H5F_blk_aggr_t, i64, i64, %struct.H5F_meta_accum_t, i32, i32, [30 x ptr], %struct.H5F_object_flush_t, i8, ptr }
%struct.H5F_mtab_t = type { i32, i32, ptr }
%struct.H5AC_cache_config_t = type { i32, i8, i8, i8, [1025 x i8], i8, i8, i64, double, i64, i64, i64, i32, double, double, i8, i64, i32, double, double, i32, double, double, i8, i64, i32, i8, double, i64, i32 }
%struct.H5AC_cache_image_config_t = type { i32, i8, i8, i32 }
%struct.H5F_blk_aggr_t = type { i64, i64, i64, i64, i64 }
%struct.H5F_meta_accum_t = type { ptr, i64, i64, i64, i64, i64, i8 }
%struct.H5F_object_flush_t = type { ptr, ptr }

; Function Attrs: nounwind uwtable
define internal i32 @H5MF__sect_small_can_merge(ptr noundef %0, ptr noundef %1, ptr noundef %2) #0 {
  %4 = alloca ptr, align 8
  %5 = alloca ptr, align 8
  %6 = alloca ptr, align 8
  %7 = alloca ptr, align 8
  %8 = alloca ptr, align 8
  %9 = alloca ptr, align 8
  %10 = alloca i32, align 4
  store ptr %0, ptr %4, align 8
  store ptr %1, ptr %5, align 8
  store ptr %2, ptr %6, align 8
  %11 = load ptr, ptr %4, align 8
  store ptr %11, ptr %7, align 8
  %12 = load ptr, ptr %5, align 8
  store ptr %12, ptr %8, align 8
  %13 = load ptr, ptr %6, align 8
  store ptr %13, ptr %9, align 8
  store i32 0, ptr %10, align 4
  %14 = load ptr, ptr %7, align 8
  %15 = getelementptr inbounds %struct.H5MF_free_section_t, ptr %14, i32 0, i32 0
  %16 = getelementptr inbounds %struct.H5FS_section_info_t, ptr %15, i32 0, i32 0
  %17 = load i64, ptr %16, align 8
  %18 = load ptr, ptr %7, align 8
  %19 = getelementptr inbounds %struct.H5MF_free_section_t, ptr %18, i32 0, i32 0
  %20 = getelementptr inbounds %struct.H5FS_section_info_t, ptr %19, i32 0, i32 1
  %21 = load i64, ptr %20, align 8
  %22 = add i64 %17, %21
  %23 = icmp ne i64 %22, -1
  br i1 %23, label %24, label %39

24:                                               ; preds = %3
  %25 = load ptr, ptr %7, align 8
  %26 = getelementptr inbounds %struct.H5MF_free_section_t, ptr %25, i32 0, i32 0
  %27 = getelementptr inbounds %struct.H5FS_section_info_t, ptr %26, i32 0, i32 0
  %28 = load i64, ptr %27, align 8
  %29 = load ptr, ptr %7, align 8
  %30 = getelementptr inbounds %struct.H5MF_free_section_t, ptr %29, i32 0, i32 0
  %31 = getelementptr inbounds %struct.H5FS_section_info_t, ptr %30, i32 0, i32 1
  %32 = load i64, ptr %31, align 8
  %33 = add i64 %28, %32
  %34 = load ptr, ptr %8, align 8
  %35 = getelementptr inbounds %struct.H5MF_free_section_t, ptr %34, i32 0, i32 0
  %36 = getelementptr inbounds %struct.H5FS_section_info_t, ptr %35, i32 0, i32 0
  %37 = load i64, ptr %36, align 8
  %38 = icmp eq i64 %33, %37
  br label %39

39:                                               ; preds = %24, %3
  %40 = phi i1 [ false, %3 ], [ %38, %24 ]
  %41 = zext i1 %40 to i32
  store i32 %41, ptr %10, align 4
  %42 = load i32, ptr %10, align 4
  %43 = icmp sgt i32 %42, 0
  br i1 %43, label %44, label %78

44:                                               ; preds = %39
  %45 = load ptr, ptr %7, align 8
  %46 = getelementptr inbounds %struct.H5MF_free_section_t, ptr %45, i32 0, i32 0
  %47 = getelementptr inbounds %struct.H5FS_section_info_t, ptr %46, i32 0, i32 0
  %48 = load i64, ptr %47, align 8
  %49 = load ptr, ptr %9, align 8
  %50 = getelementptr inbounds %struct.H5MF_sect_ud_t, ptr %49, i32 0, i32 0
  %51 = load ptr, ptr %50, align 8
  %52 = getelementptr inbounds %struct.H5F_t, ptr %51, i32 0, i32 2
  %53 = load ptr, ptr %52, align 8
  %54 = getelementptr inbounds %struct.H5F_shared_t, ptr %53, i32 0, i32 64
  %55 = load i64, ptr %54, align 8
  %56 = udiv i64 %48, %55
  %57 = load ptr, ptr %8, align 8
  %58 = getelementptr inbounds %struct.H5MF_free_section_t, ptr %57, i32 0, i32 0
  %59 = getelementptr inbounds %struct.H5FS_section_info_t, ptr %58, i32 0, i32 0
  %60 = load i64, ptr %59, align 8
  %61 = load ptr, ptr %8, align 8
  %62 = getelementptr inbounds %struct.H5MF_free_section_t, ptr %61, i32 0, i32 0
  %63 = getelementptr inbounds %struct.H5FS_section_info_t, ptr %62, i32 0, i32 1
  %64 = load i64, ptr %63, align 8
  %65 = add i64 %60, %64
  %66 = sub i64 %65, 1
  %67 = load ptr, ptr %9, align 8
  %68 = getelementptr inbounds %struct.H5MF_sect_ud_t, ptr %67, i32 0, i32 0
  %69 = load ptr, ptr %68, align 8
  %70 = getelementptr inbounds %struct.H5F_t, ptr %69, i32 0, i32 2
  %71 = load ptr, ptr %70, align 8
  %72 = getelementptr inbounds %struct.H5F_shared_t, ptr %71, i32 0, i32 64
  %73 = load i64, ptr %72, align 8
  %74 = udiv i64 %66, %73
  %75 = icmp ne i64 %56, %74
  br i1 %75, label %76, label %77

76:                                               ; preds = %44
  store i32 0, ptr %10, align 4
  br label %77

77:                                               ; preds = %76, %44
  br label %78

78:                                               ; preds = %77, %39
  %79 = load i32, ptr %10, align 4
  ret i32 %79
}