; Function Attrs: mustprogress nofree norecurse nosync nounwind willreturn memory(read, inaccessiblemem: none) uwtable
define internal range(i32 0, 2) i32 @H5MF__sect_small_can_merge(ptr nocapture noundef readonly %0, ptr nocapture noundef readonly %1, ptr nocapture noundef readonly %2) #3 {
  %4 = load i64, ptr %0, align 8
  %5 = getelementptr inbounds i8, ptr %0, i64 8
  %6 = load i64, ptr %5, align 8
  %7 = add i64 %6, %4
  %.not = icmp eq i64 %7, -1
  br i1 %.not, label %.thread, label %8

8:                                                ; preds = %3
  %9 = load i64, ptr %1, align 8
  %10 = icmp eq i64 %7, %9
  br i1 %10, label %11, label %.thread

11:                                               ; preds = %8
  %12 = load ptr, ptr %2, align 8
  %13 = getelementptr inbounds i8, ptr %12, i64 16
  %14 = load ptr, ptr %13, align 8
  %15 = getelementptr inbounds i8, ptr %14, i64 1984
  %16 = load i64, ptr %15, align 8
  %17 = udiv i64 %4, %16
  %18 = getelementptr inbounds i8, ptr %1, i64 8
  %19 = load i64, ptr %18, align 8
  %20 = add i64 %7, -1
  %21 = add i64 %20, %19
  %22 = udiv i64 %21, %16
  %.not15 = icmp eq i64 %17, %22
  %23 = zext i1 %.not15 to i32
  br label %.thread

.thread:                                          ; preds = %3, %11, %8
  %.0.shrunk = phi i32 [ 0, %8 ], [ %23, %11 ], [ 0, %3 ]
  ret i32 %.0.shrunk
}